; Function Attrs: mustprogress uwtable
define noundef zeroext i1 @_ZNK6marisa4Trie20common_prefix_searchERNS_5AgentE(ptr noundef nonnull readonly align 8 captures(none) dereferenceable(8) %0, ptr noundef nonnull align 8 dereferenceable(48) %1) local_unnamed_addr #5 align 2 personality ptr @__gxx_personality_v0 {
  %3 = load ptr, ptr %0, align 8, !tbaa !3
  %4 = icmp eq ptr %3, null
  br i1 %4, label %5, label %11

5:                                                ; preds = %2
  %6 = tail call ptr @__cxa_allocate_exception(i64 32) #12
  store ptr getelementptr inbounds nuw inrange(-16, 24) (i8, ptr @_ZTVN6marisa9ExceptionE, i64 16), ptr %6, align 8, !tbaa !9
  %7 = getelementptr inbounds nuw i8, ptr %6, i64 8
  store ptr @.str, ptr %7, align 8, !tbaa !11
  %8 = getelementptr inbounds nuw i8, ptr %6, i64 16
  store i32 103, ptr %8, align 8, !tbaa !17
  %9 = getelementptr inbounds nuw i8, ptr %6, i64 20
  store i32 1, ptr %9, align 4, !tbaa !18
  %10 = getelementptr inbounds nuw i8, ptr %6, i64 24
  store ptr @.str.16, ptr %10, align 8, !tbaa !19
  tail call void @__cxa_throw(ptr nonnull %6, ptr nonnull @_ZTIN6marisa9ExceptionE, ptr nonnull @_ZNSt9exceptionD2Ev) #15
  unreachable

11:                                               ; preds = %2
  %12 = getelementptr inbounds nuw i8, ptr %1, i64 40
  %13 = load ptr, ptr %12, align 8, !tbaa !21
  %.not = icmp eq ptr %13, null
  br i1 %.not, label %14, label %15

14:                                               ; preds = %11
  tail call void @_ZN6marisa5Agent10init_stateEv(ptr noundef nonnull align 8 dereferenceable(48) %1)
  %.pre = load ptr, ptr %0, align 8, !tbaa !3
  br label %15

15:                                               ; preds = %14, %11
  %16 = phi ptr [ %.pre, %14 ], [ %3, %11 ]
  %17 = tail call noundef zeroext i1 @_ZNK6marisa8grimoire4trie9LoudsTrie20common_prefix_searchERNS_5AgentE(ptr noundef nonnull align 8 dereferenceable(1136) %16, ptr noundef nonnull align 8 dereferenceable(48) %1)
  ret i1 %17
}